; Function Attrs: nounwind uwtable
define internal void @_hmac_dealloc(ptr noundef %0) #0 {
  %2 = getelementptr i8, ptr %0, i64 8
  %.val = load ptr, ptr %2, align 8, !tbaa !22
  %3 = getelementptr inbounds nuw i8, ptr %0, i64 16
  %4 = load ptr, ptr %3, align 8, !tbaa !3
  tail call void @HMAC_CTX_free(ptr noundef %4) #9
  tail call void @PyObject_Free(ptr noundef %0) #9
  %5 = load i32, ptr %.val, align 8, !tbaa !21
  %.not.i = icmp sgt i32 %5, -1
  br i1 %.not.i, label %6, label %Py_DECREF.exit

6:                                                ; preds = %1
  %7 = add nsw i32 %5, -1
  store i32 %7, ptr %.val, align 8, !tbaa !21
  %8 = icmp eq i32 %7, 0
  br i1 %8, label %9, label %Py_DECREF.exit

9:                                                ; preds = %6
  tail call void @_Py_Dealloc(ptr noundef nonnull %.val) #9
  br label %Py_DECREF.exit

Py_DECREF.exit:                                   ; preds = %1, %6, %9
  ret void
}